target datalayout = "e-m:e-p270:32:32-p271:32:32-p272:64:64-i64:64-i128:128-f80:128-n8:16:32:64-S128"
target triple = "x86_64-pc-linux-gnu"

%struct.CeltFrame = type { ptr, [4 x ptr], [4 x ptr], ptr, [2 x %struct.CeltBlock], ptr, %struct.OpusDSP, i32, i32, i32, i32, i32, i32, i32, i32, i32, i32, i32, i32, [21 x i32], i32, i32, i32, i32, i32, i32, i32, i32, i32, i32, i32, i32, i32, float, i32, i32, i32, [21 x i32], [21 x i32], [21 x i32], [21 x i32], [21 x i32], [12 x i8] }
%struct.CeltBlock = type { [21 x float], [21 x float], [21 x float], [2 x [21 x float]], [21 x i8], [7 x i8], [2048 x float], [960 x float], [128 x float], [960 x float], i32, [3 x float], i32, [3 x float], i32, [3 x float], float, [12 x i8] }
%struct.OpusDSP = type { ptr, ptr }
%struct.AVCodecContext = type { ptr, i32, i32, ptr, i32, i32, ptr, ptr, ptr, i64, i32, i32, ptr, i32, %struct.AVRational, %struct.AVRational, %struct.AVRational, i32, i32, i32, i32, i32, %struct.AVRational, i32, i32, i32, i32, i32, i32, i32, i32, i32, i32, i32, ptr, ptr, i32, float, float, float, float, float, float, float, float, float, i32, i32, i32, i32, i32, i32, i32, i32, i32, i32, i32, i32, ptr, ptr, ptr, i32, i32, i32, i32, i32, i32, i32, i32, i32, i32, %struct.AVChannelLayout, i32, i32, i32, i32, i32, i32, i32, i32, ptr, i32, i32, i32, float, float, i32, i32, i32, i32, i32, ptr, i64, i64, float, float, i32, i32, ptr, ptr, i32, i32, i32, i32, i32, ptr, ptr, ptr, ptr, i32, i32, [8 x i64], i32, i32, i32, i32, i32, i32, i32, ptr, ptr, i32, i32, i32, i32, i32, i32, i32, i32, i32, i32, ptr, ptr, i32, i32, ptr, ptr, ptr, ptr, i32, i32, i64, i32, i32, i64, ptr, i64, ptr, i32, ptr, i32 }
%struct.AVRational = type { i32, i32 }
%struct.AVChannelLayout = type { i32, i32, %union.anon, ptr }
%union.anon = type { i64 }

@ff_opus_deemph_weights = external hidden constant [0 x float], align 4
@.str.3 = private unnamed_addr constant [39 x i8] c"Invalid number of output channels: %d\0A\00", align 1

; Function Attrs: nounwind uwtable
define void @ff_celt_free(ptr noundef %0) #0 {
  %2 = alloca ptr, align 8
  %3 = alloca ptr, align 8
  %4 = alloca i32, align 4
  %5 = alloca i32, align 4
  store ptr %0, ptr %2, align 8, !tbaa !95
  call void @llvm.lifetime.start.p0(i64 8, ptr %3) #8
  %6 = load ptr, ptr %2, align 8, !tbaa !95
  %7 = load ptr, ptr %6, align 8, !tbaa !4
  store ptr %7, ptr %3, align 8, !tbaa !4
  call void @llvm.lifetime.start.p0(i64 4, ptr %4) #8
  %8 = load ptr, ptr %3, align 8, !tbaa !4
  %9 = icmp ne ptr %8, null
  br i1 %9, label %11, label %10

10:                                               ; preds = %1
  store i32 1, ptr %5, align 4
  br label %31

11:                                               ; preds = %1
  store i32 0, ptr %4, align 4, !tbaa !14
  br label %12

12:                                               ; preds = %22, %11
  %13 = load i32, ptr %4, align 4, !tbaa !14
  %14 = sext i32 %13 to i64
  %15 = icmp ult i64 %14, 4
  br i1 %15, label %16, label %25

16:                                               ; preds = %12
  %17 = load ptr, ptr %3, align 8, !tbaa !4
  %18 = getelementptr inbounds nuw %struct.CeltFrame, ptr %17, i32 0, i32 1
  %19 = load i32, ptr %4, align 4, !tbaa !14
  %20 = sext i32 %19 to i64
  %21 = getelementptr inbounds [4 x ptr], ptr %18, i64 0, i64 %20
  call void @av_tx_uninit(ptr noundef %21)
  br label %22

22:                                               ; preds = %16
  %23 = load i32, ptr %4, align 4, !tbaa !14
  %24 = add nsw i32 %23, 1
  store i32 %24, ptr %4, align 4, !tbaa !14
  br label %12, !llvm.loop !97

25:                                               ; preds = %12
  %26 = load ptr, ptr %3, align 8, !tbaa !4
  %27 = getelementptr inbounds nuw %struct.CeltFrame, ptr %26, i32 0, i32 5
  call void @ff_celt_pvq_uninit(ptr noundef %27)
  %28 = load ptr, ptr %3, align 8, !tbaa !4
  %29 = getelementptr inbounds nuw %struct.CeltFrame, ptr %28, i32 0, i32 3
  call void @av_freep(ptr noundef %29)
  %30 = load ptr, ptr %2, align 8, !tbaa !95
  call void @av_freep(ptr noundef %30)
  store i32 0, ptr %5, align 4
  br label %31

31:                                               ; preds = %25, %10
  call void @llvm.lifetime.end.p0(i64 4, ptr %4) #8
  call void @llvm.lifetime.end.p0(i64 8, ptr %3) #8
  %32 = load i32, ptr %5, align 4
  switch i32 %32, label %34 [
    i32 0, label %33
    i32 1, label %33
  ]

33:                                               ; preds = %31, %31
  ret void

34:                                               ; preds = %31
  unreachable
}

; Function Attrs: nounwind uwtable
define void @ff_celt_flush(ptr noundef %0) #0 {
  %2 = alloca ptr, align 8
  %3 = alloca i32, align 4
  %4 = alloca i32, align 4
  %5 = alloca i32, align 4
  %6 = alloca ptr, align 8
  store ptr %0, ptr %2, align 8, !tbaa !4
  call void @llvm.lifetime.start.p0(i64 4, ptr %3) #8
  call void @llvm.lifetime.start.p0(i64 4, ptr %4) #8
  %7 = load ptr, ptr %2, align 8, !tbaa !4
  %8 = getelementptr inbounds nuw %struct.CeltFrame, ptr %7, i32 0, i32 27
  %9 = load i32, ptr %8, align 8, !tbaa !26
  %10 = icmp ne i32 %9, 0
  br i1 %10, label %11, label %12

11:                                               ; preds = %1
  store i32 1, ptr %5, align 4
  br label %69

12:                                               ; preds = %1
  store i32 0, ptr %3, align 4, !tbaa !14
  br label %13

13:                                               ; preds = %61, %12
  %14 = load i32, ptr %3, align 4, !tbaa !14
  %15 = icmp slt i32 %14, 2
  br i1 %15, label %16, label %64

16:                                               ; preds = %13
  call void @llvm.lifetime.start.p0(i64 8, ptr %6) #8
  %17 = load ptr, ptr %2, align 8, !tbaa !4
  %18 = getelementptr inbounds nuw %struct.CeltFrame, ptr %17, i32 0, i32 4
  %19 = load i32, ptr %3, align 4, !tbaa !14
  %20 = sext i32 %19 to i64
  %21 = getelementptr inbounds [2 x %struct.CeltBlock], ptr %18, i64 0, i64 %20
  store ptr %21, ptr %6, align 8, !tbaa !49
  store i32 0, ptr %4, align 4, !tbaa !14
  br label %22

22:                                               ; preds = %38, %16
  %23 = load i32, ptr %4, align 4, !tbaa !14
  %24 = icmp slt i32 %23, 21
  br i1 %24, label %25, label %41

25:                                               ; preds = %22
  %26 = load ptr, ptr %6, align 8, !tbaa !49
  %27 = getelementptr inbounds nuw %struct.CeltBlock, ptr %26, i32 0, i32 3
  %28 = getelementptr inbounds [2 x [21 x float]], ptr %27, i64 0, i64 1
  %29 = load i32, ptr %4, align 4, !tbaa !14
  %30 = sext i32 %29 to i64
  %31 = getelementptr inbounds [21 x float], ptr %28, i64 0, i64 %30
  store float -2.800000e+01, ptr %31, align 4, !tbaa !46
  %32 = load ptr, ptr %6, align 8, !tbaa !49
  %33 = getelementptr inbounds nuw %struct.CeltBlock, ptr %32, i32 0, i32 3
  %34 = getelementptr inbounds [2 x [21 x float]], ptr %33, i64 0, i64 0
  %35 = load i32, ptr %4, align 4, !tbaa !14
  %36 = sext i32 %35 to i64
  %37 = getelementptr inbounds [21 x float], ptr %34, i64 0, i64 %36
  store float -2.800000e+01, ptr %37, align 4, !tbaa !46
  br label %38

38:                                               ; preds = %25
  %39 = load i32, ptr %4, align 4, !tbaa !14
  %40 = add nsw i32 %39, 1
  store i32 %40, ptr %4, align 4, !tbaa !14
  br label %22, !llvm.loop !93

41:                                               ; preds = %22
  %42 = load ptr, ptr %6, align 8, !tbaa !49
  %43 = getelementptr inbounds nuw %struct.CeltBlock, ptr %42, i32 0, i32 0
  %44 = getelementptr inbounds [21 x float], ptr %43, i64 0, i64 0
  call void @llvm.memset.p0.i64(ptr align 16 %44, i8 0, i64 84, i1 false)
  %45 = load ptr, ptr %6, align 8, !tbaa !49
  %46 = getelementptr inbounds nuw %struct.CeltBlock, ptr %45, i32 0, i32 6
  %47 = getelementptr inbounds [2048 x float], ptr %46, i64 0, i64 0
  call void @llvm.memset.p0.i64(ptr align 16 %47, i8 0, i64 8192, i1 false)
  %48 = load ptr, ptr %6, align 8, !tbaa !49
  %49 = getelementptr inbounds nuw %struct.CeltBlock, ptr %48, i32 0, i32 13
  %50 = getelementptr inbounds [3 x float], ptr %49, i64 0, i64 0
  call void @llvm.memset.p0.i64(ptr align 4 %50, i8 0, i64 12, i1 false)
  %51 = load ptr, ptr %6, align 8, !tbaa !49
  %52 = getelementptr inbounds nuw %struct.CeltBlock, ptr %51, i32 0, i32 15
  %53 = getelementptr inbounds [3 x float], ptr %52, i64 0, i64 0
  call void @llvm.memset.p0.i64(ptr align 4 %53, i8 0, i64 12, i1 false)
  %54 = load ptr, ptr %6, align 8, !tbaa !49
  %55 = getelementptr inbounds nuw %struct.CeltBlock, ptr %54, i32 0, i32 11
  %56 = getelementptr inbounds [3 x float], ptr %55, i64 0, i64 0
  call void @llvm.memset.p0.i64(ptr align 4 %56, i8 0, i64 12, i1 false)
  %57 = load float, ptr @ff_opus_deemph_weights, align 4, !tbaa !46
  %58 = fdiv nsz float 0.000000e+00, %57
  %59 = load ptr, ptr %6, align 8, !tbaa !49
  %60 = getelementptr inbounds nuw %struct.CeltBlock, ptr %59, i32 0, i32 16
  store float %58, ptr %60, align 16, !tbaa !63
  call void @llvm.lifetime.end.p0(i64 8, ptr %6) #8
  br label %61

61:                                               ; preds = %41
  %62 = load i32, ptr %3, align 4, !tbaa !14
  %63 = add nsw i32 %62, 1
  store i32 %63, ptr %3, align 4, !tbaa !14
  br label %13, !llvm.loop !94

64:                                               ; preds = %13
  %65 = load ptr, ptr %2, align 8, !tbaa !4
  %66 = getelementptr inbounds nuw %struct.CeltFrame, ptr %65, i32 0, i32 28
  store i32 0, ptr %66, align 4, !tbaa !71
  %67 = load ptr, ptr %2, align 8, !tbaa !4
  %68 = getelementptr inbounds nuw %struct.CeltFrame, ptr %67, i32 0, i32 27
  store i32 1, ptr %68, align 8, !tbaa !26
  store i32 0, ptr %5, align 4
  br label %69

69:                                               ; preds = %64, %11
  call void @llvm.lifetime.end.p0(i64 4, ptr %4) #8
  call void @llvm.lifetime.end.p0(i64 4, ptr %3) #8
  %70 = load i32, ptr %5, align 4
  switch i32 %70, label %72 [
    i32 0, label %71
    i32 1, label %71
  ]

71:                                               ; preds = %69, %69
  ret void

72:                                               ; preds = %69
  unreachable
}

; Function Attrs: nounwind uwtable
define i32 @ff_celt_init(ptr noundef %0, ptr noundef %1, i32 noundef %2, i32 noundef %3) #0 {
  %5 = alloca i32, align 4
  %6 = alloca ptr, align 8
  %7 = alloca ptr, align 8
  %8 = alloca i32, align 4
  %9 = alloca i32, align 4
  %10 = alloca ptr, align 8
  %11 = alloca i32, align 4
  %12 = alloca i32, align 4
  %13 = alloca i32, align 4
  %14 = alloca float, align 4
  store ptr %0, ptr %6, align 8, !tbaa !98
  store ptr %1, ptr %7, align 8, !tbaa !95
  store i32 %2, ptr %8, align 4, !tbaa !14
  store i32 %3, ptr %9, align 4, !tbaa !14
  call void @llvm.lifetime.start.p0(i64 8, ptr %10) #8
  call void @llvm.lifetime.start.p0(i64 4, ptr %11) #8
  call void @llvm.lifetime.start.p0(i64 4, ptr %12) #8
  %15 = load i32, ptr %8, align 4, !tbaa !14
  %16 = icmp ne i32 %15, 1
  br i1 %16, label %17, label %23

17:                                               ; preds = %4
  %18 = load i32, ptr %8, align 4, !tbaa !14
  %19 = icmp ne i32 %18, 2
  br i1 %19, label %20, label %23

20:                                               ; preds = %17
  %21 = load ptr, ptr %6, align 8, !tbaa !98
  %22 = load i32, ptr %8, align 4, !tbaa !14
  call void (ptr, i32, ptr, ...) @av_log(ptr noundef %21, i32 noundef 16, ptr noundef @.str.3, i32 noundef %22)
  store i32 -22, ptr %5, align 4
  store i32 1, ptr %13, align 4
  br label %93

23:                                               ; preds = %17, %4
  %24 = call noalias ptr @av_mallocz(i64 noundef 34528)
  store ptr %24, ptr %10, align 8, !tbaa !4
  %25 = load ptr, ptr %10, align 8, !tbaa !4
  %26 = icmp ne ptr %25, null
  br i1 %26, label %28, label %27

27:                                               ; preds = %23
  store i32 -12, ptr %5, align 4
  store i32 1, ptr %13, align 4
  br label %93

28:                                               ; preds = %23
  %29 = load ptr, ptr %6, align 8, !tbaa !98
  %30 = load ptr, ptr %10, align 8, !tbaa !4
  %31 = getelementptr inbounds nuw %struct.CeltFrame, ptr %30, i32 0, i32 0
  store ptr %29, ptr %31, align 16, !tbaa !16
  %32 = load i32, ptr %8, align 4, !tbaa !14
  %33 = load ptr, ptr %10, align 8, !tbaa !4
  %34 = getelementptr inbounds nuw %struct.CeltFrame, ptr %33, i32 0, i32 8
  store i32 %32, ptr %34, align 4, !tbaa !37
  %35 = load i32, ptr %9, align 4, !tbaa !14
  %36 = load ptr, ptr %10, align 8, !tbaa !4
  %37 = getelementptr inbounds nuw %struct.CeltFrame, ptr %36, i32 0, i32 9
  store i32 %35, ptr %37, align 16, !tbaa !99
  store i32 0, ptr %11, align 4, !tbaa !14
  br label %38

38:                                               ; preds = %63, %28
  %39 = load i32, ptr %11, align 4, !tbaa !14
  %40 = sext i32 %39 to i64
  %41 = icmp ult i64 %40, 4
  br i1 %41, label %42, label %66

42:                                               ; preds = %38
  call void @llvm.lifetime.start.p0(i64 4, ptr %14) #8
  store float 0xBF00000000000000, ptr %14, align 4, !tbaa !46
  %43 = load ptr, ptr %10, align 8, !tbaa !4
  %44 = getelementptr inbounds nuw %struct.CeltFrame, ptr %43, i32 0, i32 1
  %45 = load i32, ptr %11, align 4, !tbaa !14
  %46 = sext i32 %45 to i64
  %47 = getelementptr inbounds [4 x ptr], ptr %44, i64 0, i64 %46
  %48 = load ptr, ptr %10, align 8, !tbaa !4
  %49 = getelementptr inbounds nuw %struct.CeltFrame, ptr %48, i32 0, i32 2
  %50 = load i32, ptr %11, align 4, !tbaa !14
  %51 = sext i32 %50 to i64
  %52 = getelementptr inbounds [4 x ptr], ptr %49, i64 0, i64 %51
  %53 = load i32, ptr %11, align 4, !tbaa !14
  %54 = add nsw i32 %53, 3
  %55 = shl i32 15, %54
  %56 = call i32 @av_tx_init(ptr noundef %47, ptr noundef %52, i32 noundef 1, i32 noundef 1, i32 noundef %55, ptr noundef %14, i64 noundef 0)
  store i32 %56, ptr %12, align 4, !tbaa !14
  %57 = icmp slt i32 %56, 0
  br i1 %57, label %58, label %59

58:                                               ; preds = %42
  store i32 5, ptr %13, align 4
  br label %60

59:                                               ; preds = %42
  store i32 0, ptr %13, align 4
  br label %60

60:                                               ; preds = %58, %59
  call void @llvm.lifetime.end.p0(i64 4, ptr %14) #8
  %61 = load i32, ptr %13, align 4
  switch i32 %61, label %93 [
    i32 0, label %62
    i32 5, label %91
  ]

62:                                               ; preds = %60
  br label %63

63:                                               ; preds = %62
  %64 = load i32, ptr %11, align 4, !tbaa !14
  %65 = add nsw i32 %64, 1
  store i32 %65, ptr %11, align 4, !tbaa !14
  br label %38, !llvm.loop !100

66:                                               ; preds = %38
  %67 = load ptr, ptr %10, align 8, !tbaa !4
  %68 = getelementptr inbounds nuw %struct.CeltFrame, ptr %67, i32 0, i32 5
  %69 = call i32 @ff_celt_pvq_init(ptr noundef %68, i32 noundef 0)
  store i32 %69, ptr %12, align 4, !tbaa !14
  %70 = icmp slt i32 %69, 0
  br i1 %70, label %71, label %72

71:                                               ; preds = %66
  br label %91

72:                                               ; preds = %66
  %73 = load ptr, ptr %6, align 8, !tbaa !98
  %74 = getelementptr inbounds nuw %struct.AVCodecContext, ptr %73, i32 0, i32 10
  %75 = load i32, ptr %74, align 8, !tbaa !101
  %76 = and i32 %75, 8388608
  %77 = call ptr @avpriv_float_dsp_alloc(i32 noundef %76)
  %78 = load ptr, ptr %10, align 8, !tbaa !4
  %79 = getelementptr inbounds nuw %struct.CeltFrame, ptr %78, i32 0, i32 3
  store ptr %77, ptr %79, align 8, !tbaa !52
  %80 = load ptr, ptr %10, align 8, !tbaa !4
  %81 = getelementptr inbounds nuw %struct.CeltFrame, ptr %80, i32 0, i32 3
  %82 = load ptr, ptr %81, align 8, !tbaa !52
  %83 = icmp ne ptr %82, null
  br i1 %83, label %85, label %84

84:                                               ; preds = %72
  store i32 -12, ptr %12, align 4, !tbaa !14
  br label %91

85:                                               ; preds = %72
  %86 = load ptr, ptr %10, align 8, !tbaa !4
  %87 = getelementptr inbounds nuw %struct.CeltFrame, ptr %86, i32 0, i32 6
  call void @ff_opus_dsp_init(ptr noundef %87)
  %88 = load ptr, ptr %10, align 8, !tbaa !4
  call void @ff_celt_flush(ptr noundef %88)
  %89 = load ptr, ptr %10, align 8, !tbaa !4
  %90 = load ptr, ptr %7, align 8, !tbaa !95
  store ptr %89, ptr %90, align 8, !tbaa !4
  store i32 0, ptr %5, align 4
  store i32 1, ptr %13, align 4
  br label %93

91:                                               ; preds = %60, %84, %71
  call void @ff_celt_free(ptr noundef %10)
  %92 = load i32, ptr %12, align 4, !tbaa !14
  store i32 %92, ptr %5, align 4
  store i32 1, ptr %13, align 4
  br label %93

93:                                               ; preds = %91, %85, %60, %27, %20
  call void @llvm.lifetime.end.p0(i64 4, ptr %12) #8
  call void @llvm.lifetime.end.p0(i64 4, ptr %11) #8
  call void @llvm.lifetime.end.p0(i64 8, ptr %10) #8
  %94 = load i32, ptr %5, align 4
  ret i32 %94
}