; Function Attrs: nounwind uwtable
define range(i32 -2147483648, 1) i32 @ff_celt_init(ptr noundef %0, ptr noundef writeonly captures(none) %1, i32 noundef %2, i32 noundef %3) local_unnamed_addr #0 {
  %5 = alloca ptr, align 8
  %6 = alloca float, align 4
  call void @llvm.lifetime.start.p0(i64 8, ptr nonnull %5) #8
  %7 = add i32 %2, -3
  %or.cond = icmp ult i32 %7, -2
  br i1 %or.cond, label %8, label %9

8:                                                ; preds = %4
  tail call void (ptr, i32, ptr, ...) @av_log(ptr noundef %0, i32 noundef 16, ptr noundef nonnull @.str.3, i32 noundef %2) #8
  br label %ff_celt_free.exit

9:                                                ; preds = %4
  %10 = tail call noalias ptr @av_mallocz(i64 noundef 34528) #8
  store ptr %10, ptr %5, align 8, !tbaa !88
  %.not = icmp eq ptr %10, null
  br i1 %.not, label %ff_celt_free.exit, label %11

11:                                               ; preds = %9
  store ptr %0, ptr %10, align 16, !tbaa !4
  %12 = getelementptr inbounds nuw i8, ptr %10, i64 33900
  store i32 %2, ptr %12, align 4, !tbaa !30
  %13 = getelementptr inbounds nuw i8, ptr %10, i64 33904
  store i32 %3, ptr %13, align 16, !tbaa !91
  %14 = getelementptr inbounds nuw i8, ptr %10, i64 8
  %15 = getelementptr inbounds nuw i8, ptr %10, i64 40
  br label %17

16:                                               ; preds = %17
  %indvars.iv.next = add nuw nsw i64 %indvars.iv, 1
  %exitcond.not = icmp eq i64 %indvars.iv.next, 4
  br i1 %exitcond.not, label %24, label %17, !llvm.loop !92

17:                                               ; preds = %11, %16
  %indvars.iv = phi i64 [ 0, %11 ], [ %indvars.iv.next, %16 ]
  call void @llvm.lifetime.start.p0(i64 4, ptr nonnull %6) #8
  store float 0xBF00000000000000, ptr %6, align 4, !tbaa !35
  %18 = getelementptr inbounds nuw [4 x ptr], ptr %14, i64 0, i64 %indvars.iv
  %19 = getelementptr inbounds nuw [4 x ptr], ptr %15, i64 0, i64 %indvars.iv
  %20 = trunc nuw nsw i64 %indvars.iv to i32
  %21 = shl nuw nsw i32 120, %20
  %22 = call i32 @av_tx_init(ptr noundef nonnull %18, ptr noundef nonnull %19, i32 noundef 1, i32 noundef 1, i32 noundef %21, ptr noundef nonnull %6, i64 noundef 0) #8
  %23 = icmp slt i32 %22, 0
  call void @llvm.lifetime.end.p0(i64 4, ptr nonnull %6) #8
  br i1 %23, label %.preheader.i26, label %16

24:                                               ; preds = %16
  %25 = getelementptr inbounds nuw i8, ptr %10, i64 33872
  %26 = call i32 @ff_celt_pvq_init(ptr noundef nonnull %25, i32 noundef 0) #8
  %27 = icmp slt i32 %26, 0
  br i1 %27, label %.preheader.i26, label %28

28:                                               ; preds = %24
  %29 = getelementptr inbounds nuw i8, ptr %0, i64 64
  %30 = load i32, ptr %29, align 8, !tbaa !93
  %31 = and i32 %30, 8388608
  %32 = call ptr @avpriv_float_dsp_alloc(i32 noundef %31) #8
  %33 = getelementptr inbounds nuw i8, ptr %10, i64 72
  store ptr %32, ptr %33, align 8, !tbaa !66
  %.not24 = icmp eq ptr %32, null
  br i1 %.not24, label %.preheader.i26, label %34

34:                                               ; preds = %28
  %35 = getelementptr inbounds nuw i8, ptr %10, i64 33880
  call void @ff_opus_dsp_init(ptr noundef nonnull %35) #8
  %36 = getelementptr inbounds nuw i8, ptr %10, i64 34056
  %37 = load i32, ptr %36, align 8, !tbaa !18
  %.not.i = icmp eq i32 %37, 0
  br i1 %.not.i, label %.preheader.i, label %ff_celt_flush.exit

.preheader.i:                                     ; preds = %34
  %38 = getelementptr inbounds nuw i8, ptr %10, i64 80
  %39 = load float, ptr @ff_opus_deemph_weights, align 4, !tbaa !35
  %40 = fdiv nsz float 0.000000e+00, %39
  br label %41

41:                                               ; preds = %49, %.preheader.i
  %42 = phi i1 [ true, %.preheader.i ], [ false, %49 ]
  %indvars.iv22.i = phi i64 [ 0, %.preheader.i ], [ 1, %49 ]
  %43 = getelementptr inbounds nuw [2 x %struct.CeltBlock], ptr %38, i64 0, i64 %indvars.iv22.i
  %44 = getelementptr inbounds nuw i8, ptr %43, i64 252
  %45 = getelementptr inbounds nuw i8, ptr %43, i64 336
  br label %46

46:                                               ; preds = %46, %41
  %indvars.iv.i = phi i64 [ 0, %41 ], [ %indvars.iv.next.i, %46 ]
  %47 = getelementptr inbounds nuw [21 x float], ptr %45, i64 0, i64 %indvars.iv.i
  store float -2.800000e+01, ptr %47, align 4, !tbaa !35
  %48 = getelementptr inbounds nuw [21 x float], ptr %44, i64 0, i64 %indvars.iv.i
  store float -2.800000e+01, ptr %48, align 4, !tbaa !35
  %indvars.iv.next.i = add nuw nsw i64 %indvars.iv.i, 1
  %exitcond.not.i = icmp eq i64 %indvars.iv.next.i, 21
  br i1 %exitcond.not.i, label %49, label %46, !llvm.loop !86

49:                                               ; preds = %46
  call void @llvm.memset.p0.i64(ptr noundef nonnull align 16 dereferenceable(84) %43, i8 0, i64 84, i1 false)
  %50 = getelementptr inbounds nuw i8, ptr %43, i64 448
  call void @llvm.memset.p0.i64(ptr noundef nonnull align 16 dereferenceable(8192) %50, i8 0, i64 8192, i1 false)
  %51 = getelementptr inbounds nuw i8, ptr %43, i64 16852
  call void @llvm.memset.p0.i64(ptr noundef nonnull align 4 dereferenceable(12) %51, i8 0, i64 12, i1 false)
  %52 = getelementptr inbounds nuw i8, ptr %43, i64 16868
  call void @llvm.memset.p0.i64(ptr noundef nonnull align 4 dereferenceable(12) %52, i8 0, i64 12, i1 false)
  %53 = getelementptr inbounds nuw i8, ptr %43, i64 16836
  call void @llvm.memset.p0.i64(ptr noundef nonnull align 4 dereferenceable(12) %53, i8 0, i64 12, i1 false)
  %54 = getelementptr inbounds nuw i8, ptr %43, i64 16880
  store float %40, ptr %54, align 16, !tbaa !80
  br i1 %42, label %41, label %55, !llvm.loop !87

55:                                               ; preds = %49
  %56 = getelementptr inbounds nuw i8, ptr %10, i64 34060
  store i32 0, ptr %56, align 4, !tbaa !59
  store i32 1, ptr %36, align 8, !tbaa !18
  br label %ff_celt_flush.exit

ff_celt_flush.exit:                               ; preds = %34, %55
  store ptr %10, ptr %1, align 8, !tbaa !88
  br label %ff_celt_free.exit

.preheader.i26:                                   ; preds = %17, %28, %24
  %.017 = phi i32 [ -12, %28 ], [ %26, %24 ], [ %22, %17 ]
  br label %57

57:                                               ; preds = %57, %.preheader.i26
  %indvars.iv.i27 = phi i64 [ 0, %.preheader.i26 ], [ %indvars.iv.next.i28, %57 ]
  %58 = getelementptr inbounds nuw [4 x ptr], ptr %14, i64 0, i64 %indvars.iv.i27
  call void @av_tx_uninit(ptr noundef nonnull %58) #8
  %indvars.iv.next.i28 = add nuw nsw i64 %indvars.iv.i27, 1
  %exitcond.not.i29 = icmp eq i64 %indvars.iv.next.i28, 4
  br i1 %exitcond.not.i29, label %59, label %57, !llvm.loop !90

59:                                               ; preds = %57
  %60 = getelementptr inbounds nuw i8, ptr %10, i64 33872
  call void @ff_celt_pvq_uninit(ptr noundef nonnull %60) #8
  %61 = getelementptr inbounds nuw i8, ptr %10, i64 72
  call void @av_freep(ptr noundef nonnull %61) #8
  call void @av_freep(ptr noundef nonnull %5) #8
  br label %ff_celt_free.exit

ff_celt_free.exit:                                ; preds = %59, %9, %ff_celt_flush.exit, %8
  %.019 = phi i32 [ -22, %8 ], [ 0, %ff_celt_flush.exit ], [ -12, %9 ], [ %.017, %59 ]
  call void @llvm.lifetime.end.p0(i64 8, ptr nonnull %5) #8
  ret i32 %.019
}